; Function Attrs: mustprogress uwtable
define hidden void @_ZN6cvtest9ArrayTest10fill_arrayEiiiRN2cv3MatE(ptr noundef nonnull align 8 dereferenceable(136) %0, i32 %1, i32 noundef %2, i32 noundef %3, ptr noundef nonnull align 8 dereferenceable(96) %4) unnamed_addr #4 align 2 personality ptr @__gxx_personality_v0 {
  %6 = alloca %"class.cv::Mat", align 8
  %7 = alloca %"class.cv::Scalar_", align 8
  %8 = alloca %"class.cv::Scalar_", align 8
  switch i32 %2, label %26 [
    i32 3, label %9
    i32 6, label %19
    i32 1, label %19
    i32 0, label %19
  ]

9:                                                ; preds = %5
  %10 = getelementptr inbounds nuw i8, ptr %0, i64 96
  %11 = load ptr, ptr %10, align 8, !tbaa !34
  %12 = getelementptr inbounds nuw i8, ptr %11, i64 24
  %13 = sext i32 %3 to i64
  %14 = load ptr, ptr %12, align 8, !tbaa !36
  %15 = getelementptr inbounds nuw %"class.cv::Mat", ptr %14, i64 %13
  call void @llvm.lifetime.start.p0(i64 96, ptr nonnull %6) #22
  call void @_ZN2cv3MatC1Ev(ptr noundef nonnull align 8 dereferenceable(96) %6) #22
  invoke void @_ZN6cvtest4copyERKN2cv3MatERS1_S3_b(ptr noundef nonnull align 8 dereferenceable(96) %15, ptr noundef nonnull align 8 dereferenceable(96) %4, ptr noundef nonnull align 8 dereferenceable(96) %6, i1 noundef zeroext false)
          to label %16 unwind label %17

16:                                               ; preds = %9
  call void @_ZN2cv3MatD1Ev(ptr noundef nonnull align 8 dereferenceable(96) %6) #22
  call void @llvm.lifetime.end.p0(i64 96, ptr nonnull %6) #22
  br label %26

17:                                               ; preds = %9
  %18 = landingpad { ptr, i32 }
          cleanup
  call void @_ZN2cv3MatD1Ev(ptr noundef nonnull align 8 dereferenceable(96) %6) #22
  call void @llvm.lifetime.end.p0(i64 96, ptr nonnull %6) #22
  resume { ptr, i32 } %18

19:                                               ; preds = %5, %5, %5
  call void @llvm.lifetime.start.p0(i64 32, ptr nonnull %7) #22
  call void @llvm.memset.p0.i64(ptr noundef nonnull align 8 dereferenceable(32) %7, i8 0, i64 32, i1 false)
  call void @llvm.lifetime.start.p0(i64 32, ptr nonnull %8) #22
  call void @llvm.memset.p0.i64(ptr noundef nonnull align 8 dereferenceable(32) %8, i8 0, i64 32, i1 false)
  %20 = load i32, ptr %4, align 8, !tbaa !113
  %21 = and i32 %20, 4095
  %22 = load ptr, ptr %0, align 8, !tbaa !3
  %23 = getelementptr inbounds nuw i8, ptr %22, i64 128
  %24 = load ptr, ptr %23, align 8
  call void %24(ptr noundef nonnull align 8 dereferenceable(136) %0, i32 noundef %2, i32 noundef %3, i32 noundef %21, ptr noundef nonnull align 8 dereferenceable(32) %7, ptr noundef nonnull align 8 dereferenceable(32) %8)
  %25 = call noundef nonnull align 8 dereferenceable(8) ptr @_ZN2cv6theRNGEv()
  call void @_ZN6cvtest7randUniERN2cv3RNGERNS0_3MatERKNS0_7Scalar_IdEES8_(ptr noundef nonnull align 8 dereferenceable(8) %25, ptr noundef nonnull align 8 dereferenceable(96) %4, ptr noundef nonnull align 8 dereferenceable(32) %7, ptr noundef nonnull align 8 dereferenceable(32) %8)
  call void @llvm.lifetime.end.p0(i64 32, ptr nonnull %8) #22
  call void @llvm.lifetime.end.p0(i64 32, ptr nonnull %7) #22
  br label %26

26:                                               ; preds = %5, %19, %16
  ret void
}